target datalayout = "e-m:e-p270:32:32-p271:32:32-p272:64:64-i64:64-i128:128-f80:128-n8:16:32:64-S128"
target triple = "x86_64-pc-linux-gnu"

; Function Attrs: mustprogress uwtable
define void @_ZN17RtpAnalysisDialog11clearLayoutEP7QLayout(ptr noundef nonnull align 8 dereferenceable(328) %0, ptr noundef %1) #0 align 2 {
  %3 = alloca ptr, align 8
  %4 = alloca ptr, align 8
  %5 = alloca ptr, align 8
  store ptr %0, ptr %3, align 8
  store ptr %1, ptr %4, align 8
  %6 = load ptr, ptr %4, align 8
  %7 = icmp ne ptr %6, null
  br i1 %7, label %8, label %50

8:                                                ; preds = %2
  br label %9

9:                                                ; preds = %48, %8
  %10 = load ptr, ptr %4, align 8
  %11 = load ptr, ptr %10, align 8
  %12 = getelementptr inbounds ptr, ptr %11, i64 22
  %13 = load ptr, ptr %12, align 8
  %14 = call noundef ptr %13(ptr noundef nonnull align 8 dereferenceable(28) %10, i32 noundef 0)
  store ptr %14, ptr %5, align 8
  %15 = icmp ne ptr %14, null
  br i1 %15, label %16, label %49

16:                                               ; preds = %9
  %17 = load ptr, ptr %5, align 8
  %18 = load ptr, ptr %17, align 8
  %19 = getelementptr inbounds ptr, ptr %18, i64 13
  %20 = load ptr, ptr %19, align 8
  %21 = call noundef ptr %20(ptr noundef nonnull align 8 dereferenceable(12) %17)
  %22 = icmp ne ptr %21, null
  br i1 %22, label %23, label %41

23:                                               ; preds = %16
  %24 = load ptr, ptr %4, align 8
  %25 = load ptr, ptr %5, align 8
  %26 = load ptr, ptr %25, align 8
  %27 = getelementptr inbounds ptr, ptr %26, i64 13
  %28 = load ptr, ptr %27, align 8
  %29 = call noundef ptr %28(ptr noundef nonnull align 8 dereferenceable(12) %25)
  call void @_ZN7QLayout12removeWidgetEP7QWidget(ptr noundef nonnull align 8 dereferenceable(28) %24, ptr noundef %29)
  %30 = load ptr, ptr %5, align 8
  %31 = load ptr, ptr %30, align 8
  %32 = getelementptr inbounds ptr, ptr %31, i64 13
  %33 = load ptr, ptr %32, align 8
  %34 = call noundef ptr %33(ptr noundef nonnull align 8 dereferenceable(12) %30)
  %35 = icmp eq ptr %34, null
  br i1 %35, label %40, label %36

36:                                               ; preds = %23
  %37 = load ptr, ptr %34, align 8
  %38 = getelementptr inbounds ptr, ptr %37, i64 4
  %39 = load ptr, ptr %38, align 8
  call void %39(ptr noundef nonnull align 8 dereferenceable(40) %34) #18
  br label %40

40:                                               ; preds = %36, %23
  br label %41

41:                                               ; preds = %40, %16
  %42 = load ptr, ptr %5, align 8
  %43 = icmp eq ptr %42, null
  br i1 %43, label %48, label %44

44:                                               ; preds = %41
  %45 = load ptr, ptr %42, align 8
  %46 = getelementptr inbounds ptr, ptr %45, i64 1
  %47 = load ptr, ptr %46, align 8
  call void %47(ptr noundef nonnull align 8 dereferenceable(12) %42) #18
  br label %48

48:                                               ; preds = %44, %41
  br label %9, !llvm.loop !23

49:                                               ; preds = %9
  br label %50

50:                                               ; preds = %49, %2
  ret void
}