; Function Attrs: mustprogress uwtable
define void @_ZN17RtpAnalysisDialog11clearLayoutEP7QLayout(ptr nocapture noundef nonnull readnone align 8 dereferenceable(328) %0, ptr noundef %1) local_unnamed_addr #0 align 2 {
  %.not = icmp eq ptr %1, null
  br i1 %.not, label %.loopexit, label %.preheader

.preheader:                                       ; preds = %2
  %3 = load ptr, ptr %1, align 8
  %4 = getelementptr inbounds i8, ptr %3, i64 176
  %5 = load ptr, ptr %4, align 8
  %6 = tail call noundef ptr %5(ptr noundef nonnull align 8 dereferenceable(28) %1, i32 noundef 0)
  %.not810 = icmp eq ptr %6, null
  br i1 %.not810, label %.loopexit, label %.lr.ph

.lr.ph:                                           ; preds = %.preheader, %26
  %7 = phi ptr [ %33, %26 ], [ %6, %.preheader ]
  %8 = load ptr, ptr %7, align 8
  %9 = getelementptr inbounds i8, ptr %8, i64 104
  %10 = load ptr, ptr %9, align 8
  %11 = tail call noundef ptr %10(ptr noundef nonnull align 8 dereferenceable(12) %7)
  %.not9 = icmp eq ptr %11, null
  br i1 %.not9, label %26, label %12

12:                                               ; preds = %.lr.ph
  %13 = load ptr, ptr %7, align 8
  %14 = getelementptr inbounds i8, ptr %13, i64 104
  %15 = load ptr, ptr %14, align 8
  %16 = tail call noundef ptr %15(ptr noundef nonnull align 8 dereferenceable(12) %7)
  tail call void @_ZN7QLayout12removeWidgetEP7QWidget(ptr noundef nonnull align 8 dereferenceable(28) %1, ptr noundef %16)
  %17 = load ptr, ptr %7, align 8
  %18 = getelementptr inbounds i8, ptr %17, i64 104
  %19 = load ptr, ptr %18, align 8
  %20 = tail call noundef ptr %19(ptr noundef nonnull align 8 dereferenceable(12) %7)
  %21 = icmp eq ptr %20, null
  br i1 %21, label %26, label %22

22:                                               ; preds = %12
  %23 = load ptr, ptr %20, align 8
  %24 = getelementptr inbounds i8, ptr %23, i64 32
  %25 = load ptr, ptr %24, align 8
  tail call void %25(ptr noundef nonnull align 8 dereferenceable(40) %20) #19
  br label %26

26:                                               ; preds = %.lr.ph, %22, %12
  %27 = load ptr, ptr %7, align 8
  %28 = getelementptr inbounds i8, ptr %27, i64 8
  %29 = load ptr, ptr %28, align 8
  tail call void %29(ptr noundef nonnull align 8 dereferenceable(12) %7) #19
  %30 = load ptr, ptr %1, align 8
  %31 = getelementptr inbounds i8, ptr %30, i64 176
  %32 = load ptr, ptr %31, align 8
  %33 = tail call noundef ptr %32(ptr noundef nonnull align 8 dereferenceable(28) %1, i32 noundef 0)
  %.not8 = icmp eq ptr %33, null
  br i1 %.not8, label %.loopexit, label %.lr.ph, !llvm.loop !59

.loopexit:                                        ; preds = %26, %.preheader, %2
  ret void
}